; ModuleID = '23/750.c'
source_filename = "23/750.c"
target datalayout = "e-m:e-p270:32:32-p271:32:32-p272:64:64-i64:64-f80:128-n8:16:32:64-S128"
target triple = "x86_64-pc-linux-gnu"

@.str = private unnamed_addr constant [3 x i8] c"%s\00", align 1
@.str.1 = private unnamed_addr constant [4 x i8] c"%s \00", align 1

; Function Attrs: noinline nounwind uwtable
define dso_local void @main() #0 {
  %1 = alloca [105 x [105 x i32]], align 16
  %2 = alloca i32, align 4
  %3 = alloca i32, align 4
  store i32 0, i32* %2, align 4
  br label %4

4:                                                ; preds = %11, %0
  %5 = load i32, i32* %2, align 4
  %6 = sext i32 %5 to i64
  %7 = getelementptr inbounds [105 x [105 x i32]], [105 x [105 x i32]]* %1, i64 0, i64 %6
  %8 = getelementptr inbounds [105 x i32], [105 x i32]* %7, i64 0, i64 0
  %9 = call i32 (i8*, ...) @__isoc99_scanf(i8* getelementptr inbounds ([3 x i8], [3 x i8]* @.str, i64 0, i64 0), i32* %8)
  %10 = icmp ne i32 %9, -1
  br i1 %10, label %11, label %18

11:                                               ; preds = %4
  %12 = load i32, i32* %2, align 4
  %13 = sext i32 %12 to i64
  %14 = getelementptr inbounds [105 x [105 x i32]], [105 x [105 x i32]]* %1, i64 0, i64 %13
  %15 = getelementptr inbounds [105 x i32], [105 x i32]* %14, i64 0, i64 0
  %16 = load i32, i32* %2, align 4
  %17 = add nsw i32 %16, 1
  store i32 %17, i32* %2, align 4
  br label %4

18:                                               ; preds = %4
  %19 = load i32, i32* %2, align 4
  %20 = sub nsw i32 %19, 1
  store i32 %20, i32* %3, align 4
  br label %21

21:                                               ; preds = %40, %18
  %22 = load i32, i32* %3, align 4
  %23 = icmp sge i32 %22, 0
  br i1 %23, label %24, label %43

24:                                               ; preds = %21
  %25 = load i32, i32* %3, align 4
  %26 = icmp ne i32 %25, 0
  br i1 %26, label %27, label %33

27:                                               ; preds = %24
  %28 = load i32, i32* %3, align 4
  %29 = sext i32 %28 to i64
  %30 = getelementptr inbounds [105 x [105 x i32]], [105 x [105 x i32]]* %1, i64 0, i64 %29
  %31 = getelementptr inbounds [105 x i32], [105 x i32]* %30, i64 0, i64 0
  %32 = call i32 (i8*, ...) @printf(i8* getelementptr inbounds ([4 x i8], [4 x i8]* @.str.1, i64 0, i64 0), i32* %31)
  br label %39

33:                                               ; preds = %24
  %34 = load i32, i32* %3, align 4
  %35 = sext i32 %34 to i64
  %36 = getelementptr inbounds [105 x [105 x i32]], [105 x [105 x i32]]* %1, i64 0, i64 %35
  %37 = getelementptr inbounds [105 x i32], [105 x i32]* %36, i64 0, i64 0
  %38 = call i32 (i8*, ...) @printf(i8* getelementptr inbounds ([3 x i8], [3 x i8]* @.str, i64 0, i64 0), i32* %37)
  br label %39

39:                                               ; preds = %33, %27
  br label %40

40:                                               ; preds = %39
  %41 = load i32, i32* %3, align 4
  %42 = add nsw i32 %41, -1
  store i32 %42, i32* %3, align 4
  br label %21

43:                                               ; preds = %21
  ret void
}

declare dso_local i32 @__isoc99_scanf(i8*, ...) #1

declare dso_local i32 @printf(i8*, ...) #1


!llvm.module.flags = !{!0}
!llvm.ident = !{!1}

!0 = !{i32 1, !"wchar_size", i32 4}
!1 = !{!"clang version 10.0.0-4ubuntu1 "}
