; ModuleID = 'source-C-CXX/22/750.c'
source_filename = "source-C-CXX/22/750.c"
target datalayout = "e-m:e-p270:32:32-p271:32:32-p272:64:64-i64:64-f80:128-n8:16:32:64-S128"
target triple = "x86_64-pc-linux-gnu"

@.str = private unnamed_addr constant [3 x i8] c"%s\00", align 1
@.str.1 = private unnamed_addr constant [4 x i8] c"%s \00", align 1

; Function Attrs: nofree nounwind sspstrong uwtable
define dso_local void @main() local_unnamed_addr #0 {
  %1 = alloca [105 x [105 x i32]], align 16
  %2 = bitcast [105 x [105 x i32]]* %1 to i8*
  call void @llvm.lifetime.start.p0i8(i64 44100, i8* nonnull %2) #3
  br label %3

3:                                                ; preds = %3, %0
  %4 = phi i64 [ %8, %3 ], [ 0, %0 ]
  %5 = getelementptr inbounds [105 x [105 x i32]], [105 x [105 x i32]]* %1, i64 0, i64 %4, i64 0
  %6 = call i32 (i8*, ...) @__isoc99_scanf(i8* getelementptr inbounds ([3 x i8], [3 x i8]* @.str, i64 0, i64 0), i32* nonnull %5)
  %7 = icmp eq i32 %6, -1
  %8 = add nuw i64 %4, 1
  br i1 %7, label %9, label %3, !llvm.loop !5

9:                                                ; preds = %3
  %10 = trunc i64 %4 to i32
  %11 = getelementptr inbounds [105 x [105 x i32]], [105 x [105 x i32]]* %1, i64 0, i64 0, i64 0
  %12 = icmp eq i32 %10, 0
  br i1 %12, label %30, label %13

13:                                               ; preds = %9
  %14 = and i64 %4, 4294967295
  br label %15

15:                                               ; preds = %13, %26
  %16 = phi i64 [ %14, %13 ], [ %29, %26 ]
  %17 = phi i32 [ %10, %13 ], [ %18, %26 ]
  %18 = add nsw i32 %17, -1
  %19 = icmp eq i32 %18, 0
  br i1 %19, label %24, label %20

20:                                               ; preds = %15
  %21 = zext i32 %18 to i64
  %22 = getelementptr inbounds [105 x [105 x i32]], [105 x [105 x i32]]* %1, i64 0, i64 %21, i64 0
  %23 = call i32 (i8*, ...) @printf(i8* nonnull dereferenceable(1) getelementptr inbounds ([4 x i8], [4 x i8]* @.str.1, i64 0, i64 0), i32* nonnull %22)
  br label %26

24:                                               ; preds = %15
  %25 = call i32 (i8*, ...) @printf(i8* nonnull dereferenceable(1) getelementptr inbounds ([3 x i8], [3 x i8]* @.str, i64 0, i64 0), i32* nonnull %11)
  br label %26

26:                                               ; preds = %20, %24
  %27 = trunc i64 %16 to i32
  %28 = icmp sgt i32 %27, 1
  %29 = add nsw i64 %16, -1
  br i1 %28, label %15, label %30, !llvm.loop !7

30:                                               ; preds = %26, %9
  call void @llvm.lifetime.end.p0i8(i64 44100, i8* nonnull %2) #3
  ret void
}

; Function Attrs: argmemonly mustprogress nofree nosync nounwind willreturn
declare void @llvm.lifetime.start.p0i8(i64 immarg, i8* nocapture) #1

; Function Attrs: nofree nounwind
declare noundef i32 @__isoc99_scanf(i8* nocapture noundef readonly, ...) local_unnamed_addr #2

; Function Attrs: nofree nounwind
declare noundef i32 @printf(i8* nocapture noundef readonly, ...) local_unnamed_addr #2

; Function Attrs: argmemonly mustprogress nofree nosync nounwind willreturn
declare void @llvm.lifetime.end.p0i8(i64 immarg, i8* nocapture) #1


!llvm.module.flags = !{!0, !1, !2, !3}
!llvm.ident = !{!4}

!0 = !{i32 1, !"wchar_size", i32 4}
!1 = !{i32 7, !"PIC Level", i32 2}
!2 = !{i32 7, !"PIE Level", i32 2}
!3 = !{i32 7, !"uwtable", i32 1}
!4 = !{!"clang version 13.0.0"}
!5 = distinct !{!5, !6}
!6 = !{!"llvm.loop.mustprogress"}
!7 = distinct !{!7, !6}
